target datalayout = "e-m:e-p270:32:32-p271:32:32-p272:64:64-i64:64-i128:128-f80:128-n8:16:32:64-S128"
target triple = "x86_64-pc-linux-gnu"

%class.b3OverlappingPairCache = type { ptr }
%class.b3AlignedObjectArray = type <{ [4 x i8], i32, i32, [4 x i8], ptr, i8, [7 x i8] }>
%struct.b3Int4 = type { %union.anon }
%union.anon = type { %struct.anon }
%struct.anon = type { i32, i32, i32, i32 }
%class.b3SortedOverlappingPairCache = type { %class.b3OverlappingPairCache, %class.b3AlignedObjectArray, i8, i8, ptr }

@b3g_overlappingPairs = dso_local global i32 0, align 4

; Function Attrs: inlinehint mustprogress nounwind uwtable
define linkonce_odr dso_local noundef zeroext i1 @_ZeqRK6b3Int4S1_(ptr noundef nonnull align 16 dereferenceable(16) %0, ptr noundef nonnull align 16 dereferenceable(16) %1) #1 comdat {
  %3 = alloca ptr, align 8
  %4 = alloca ptr, align 8
  store ptr %0, ptr %3, align 8, !tbaa !30
  store ptr %1, ptr %4, align 8, !tbaa !30
  %5 = load ptr, ptr %3, align 8, !tbaa !30
  %6 = getelementptr inbounds nuw %struct.b3Int4, ptr %5, i32 0, i32 0
  %7 = getelementptr inbounds nuw %struct.anon, ptr %6, i32 0, i32 0
  %8 = load i32, ptr %7, align 16, !tbaa !38
  %9 = load ptr, ptr %4, align 8, !tbaa !30
  %10 = getelementptr inbounds nuw %struct.b3Int4, ptr %9, i32 0, i32 0
  %11 = getelementptr inbounds nuw %struct.anon, ptr %10, i32 0, i32 0
  %12 = load i32, ptr %11, align 16, !tbaa !38
  %13 = icmp eq i32 %8, %12
  br i1 %13, label %14, label %24

14:                                               ; preds = %2
  %15 = load ptr, ptr %3, align 8, !tbaa !30
  %16 = getelementptr inbounds nuw %struct.b3Int4, ptr %15, i32 0, i32 0
  %17 = getelementptr inbounds nuw %struct.anon, ptr %16, i32 0, i32 1
  %18 = load i32, ptr %17, align 4, !tbaa !38
  %19 = load ptr, ptr %4, align 8, !tbaa !30
  %20 = getelementptr inbounds nuw %struct.b3Int4, ptr %19, i32 0, i32 0
  %21 = getelementptr inbounds nuw %struct.anon, ptr %20, i32 0, i32 1
  %22 = load i32, ptr %21, align 4, !tbaa !38
  %23 = icmp eq i32 %18, %22
  br label %24

24:                                               ; preds = %14, %2
  %25 = phi i1 [ false, %2 ], [ %23, %14 ]
  ret i1 %25
}

; Function Attrs: inlinehint mustprogress nounwind uwtable
define linkonce_odr dso_local void @_ZN20b3AlignedObjectArrayI6b3Int4E8pop_backEv(ptr noundef nonnull align 8 dereferenceable(25) %0) #1 comdat align 2 {
  %2 = alloca ptr, align 8
  store ptr %0, ptr %2, align 8, !tbaa !26
  %3 = load ptr, ptr %2, align 8
  %4 = getelementptr inbounds nuw %class.b3AlignedObjectArray, ptr %3, i32 0, i32 1
  %5 = load i32, ptr %4, align 4, !tbaa !31
  %6 = add nsw i32 %5, -1
  store i32 %6, ptr %4, align 4, !tbaa !31
  ret void
}

; Function Attrs: mustprogress nounwind uwtable
define linkonce_odr dso_local void @_ZN20b3AlignedObjectArrayI6b3Int4E4swapEii(ptr noundef nonnull align 8 dereferenceable(25) %0, i32 noundef %1, i32 noundef %2) #4 comdat align 2 {
  %4 = alloca ptr, align 8
  %5 = alloca i32, align 4
  %6 = alloca i32, align 4
  %7 = alloca %struct.b3Int4, align 16
  store ptr %0, ptr %4, align 8, !tbaa !26
  store i32 %1, ptr %5, align 4, !tbaa !23
  store i32 %2, ptr %6, align 4, !tbaa !23
  %8 = load ptr, ptr %4, align 8
  call void @llvm.lifetime.start.p0(i64 16, ptr %7) #10
  %9 = getelementptr inbounds nuw %class.b3AlignedObjectArray, ptr %8, i32 0, i32 4
  %10 = load ptr, ptr %9, align 8, !tbaa !33
  %11 = load i32, ptr %5, align 4, !tbaa !23
  %12 = sext i32 %11 to i64
  %13 = getelementptr inbounds %struct.b3Int4, ptr %10, i64 %12
  call void @llvm.memcpy.p0.p0.i64(ptr align 16 %7, ptr align 16 %13, i64 16, i1 false), !tbaa.struct !59
  %14 = getelementptr inbounds nuw %class.b3AlignedObjectArray, ptr %8, i32 0, i32 4
  %15 = load ptr, ptr %14, align 8, !tbaa !33
  %16 = load i32, ptr %6, align 4, !tbaa !23
  %17 = sext i32 %16 to i64
  %18 = getelementptr inbounds %struct.b3Int4, ptr %15, i64 %17
  %19 = getelementptr inbounds nuw %class.b3AlignedObjectArray, ptr %8, i32 0, i32 4
  %20 = load ptr, ptr %19, align 8, !tbaa !33
  %21 = load i32, ptr %5, align 4, !tbaa !23
  %22 = sext i32 %21 to i64
  %23 = getelementptr inbounds %struct.b3Int4, ptr %20, i64 %22
  call void @llvm.memcpy.p0.p0.i64(ptr align 16 %23, ptr align 16 %18, i64 16, i1 false), !tbaa.struct !59
  %24 = getelementptr inbounds nuw %class.b3AlignedObjectArray, ptr %8, i32 0, i32 4
  %25 = load ptr, ptr %24, align 8, !tbaa !33
  %26 = load i32, ptr %6, align 4, !tbaa !23
  %27 = sext i32 %26 to i64
  %28 = getelementptr inbounds %struct.b3Int4, ptr %25, i64 %27
  call void @llvm.memcpy.p0.p0.i64(ptr align 16 %28, ptr align 16 %7, i64 16, i1 false), !tbaa.struct !59
  call void @llvm.lifetime.end.p0(i64 16, ptr %7) #10
  ret void
}

; Function Attrs: inlinehint mustprogress nounwind uwtable
define linkonce_odr dso_local noundef i32 @_ZNK20b3AlignedObjectArrayI6b3Int4E8capacityEv(ptr noundef nonnull align 8 dereferenceable(25) %0) #1 comdat align 2 {
  %2 = alloca ptr, align 8
  store ptr %0, ptr %2, align 8, !tbaa !26
  %3 = load ptr, ptr %2, align 8
  %4 = getelementptr inbounds nuw %class.b3AlignedObjectArray, ptr %3, i32 0, i32 2
  %5 = load i32, ptr %4, align 8, !tbaa !34
  ret i32 %5
}

; Function Attrs: inlinehint mustprogress nounwind uwtable
define linkonce_odr dso_local noundef nonnull align 16 dereferenceable(16) ptr @_ZN20b3AlignedObjectArrayI6b3Int4EixEi(ptr noundef nonnull align 8 dereferenceable(25) %0, i32 noundef %1) #1 comdat align 2 {
  %3 = alloca ptr, align 8
  %4 = alloca i32, align 4
  store ptr %0, ptr %3, align 8, !tbaa !26
  store i32 %1, ptr %4, align 4, !tbaa !23
  %5 = load ptr, ptr %3, align 8
  %6 = getelementptr inbounds nuw %class.b3AlignedObjectArray, ptr %5, i32 0, i32 4
  %7 = load ptr, ptr %6, align 8, !tbaa !33
  %8 = load i32, ptr %4, align 4, !tbaa !23
  %9 = sext i32 %8 to i64
  %10 = getelementptr inbounds %struct.b3Int4, ptr %7, i64 %9
  ret ptr %10
}

; Function Attrs: inlinehint mustprogress nounwind uwtable
define linkonce_odr dso_local noundef i32 @_ZNK20b3AlignedObjectArrayI6b3Int4E4sizeEv(ptr noundef nonnull align 8 dereferenceable(25) %0) #1 comdat align 2 {
  %2 = alloca ptr, align 8
  store ptr %0, ptr %2, align 8, !tbaa !26
  %3 = load ptr, ptr %2, align 8
  %4 = getelementptr inbounds nuw %class.b3AlignedObjectArray, ptr %3, i32 0, i32 1
  %5 = load i32, ptr %4, align 4, !tbaa !31
  ret i32 %5
}

; Function Attrs: mustprogress uwtable
define linkonce_odr dso_local noundef i32 @_ZNK20b3AlignedObjectArrayI6b3Int4E16findLinearSearchERKS0_(ptr noundef nonnull align 8 dereferenceable(25) %0, ptr noundef nonnull align 16 dereferenceable(16) %1) #0 comdat align 2 {
  %3 = alloca ptr, align 8
  %4 = alloca ptr, align 8
  %5 = alloca i32, align 4
  %6 = alloca i32, align 4
  store ptr %0, ptr %3, align 8, !tbaa !26
  store ptr %1, ptr %4, align 8, !tbaa !30
  %7 = load ptr, ptr %3, align 8
  call void @llvm.lifetime.start.p0(i64 4, ptr %5) #10
  %8 = call noundef i32 @_ZNK20b3AlignedObjectArrayI6b3Int4E4sizeEv(ptr noundef nonnull align 8 dereferenceable(25) %7)
  store i32 %8, ptr %5, align 4, !tbaa !23
  call void @llvm.lifetime.start.p0(i64 4, ptr %6) #10
  store i32 0, ptr %6, align 4, !tbaa !23
  br label %9

9:                                                ; preds = %24, %2
  %10 = load i32, ptr %6, align 4, !tbaa !23
  %11 = call noundef i32 @_ZNK20b3AlignedObjectArrayI6b3Int4E4sizeEv(ptr noundef nonnull align 8 dereferenceable(25) %7)
  %12 = icmp slt i32 %10, %11
  br i1 %12, label %13, label %27

13:                                               ; preds = %9
  %14 = getelementptr inbounds nuw %class.b3AlignedObjectArray, ptr %7, i32 0, i32 4
  %15 = load ptr, ptr %14, align 8, !tbaa !33
  %16 = load i32, ptr %6, align 4, !tbaa !23
  %17 = sext i32 %16 to i64
  %18 = getelementptr inbounds %struct.b3Int4, ptr %15, i64 %17
  %19 = load ptr, ptr %4, align 8, !tbaa !30
  %20 = call noundef zeroext i1 @_ZeqRK6b3Int4S1_(ptr noundef nonnull align 16 dereferenceable(16) %18, ptr noundef nonnull align 16 dereferenceable(16) %19)
  br i1 %20, label %21, label %23

21:                                               ; preds = %13
  %22 = load i32, ptr %6, align 4, !tbaa !23
  store i32 %22, ptr %5, align 4, !tbaa !23
  br label %27

23:                                               ; preds = %13
  br label %24

24:                                               ; preds = %23
  %25 = load i32, ptr %6, align 4, !tbaa !23
  %26 = add nsw i32 %25, 1
  store i32 %26, ptr %6, align 4, !tbaa !23
  br label %9, !llvm.loop !74

27:                                               ; preds = %21, %9
  %28 = load i32, ptr %5, align 4, !tbaa !23
  call void @llvm.lifetime.end.p0(i64 4, ptr %6) #10
  call void @llvm.lifetime.end.p0(i64 4, ptr %5) #10
  ret i32 %28
}

; Function Attrs: inlinehint mustprogress nounwind uwtable
define linkonce_odr dso_local { i64, i64 } @_Z20b3MakeBroadphasePairii(i32 noundef %0, i32 noundef %1) #1 comdat {
  %3 = alloca %struct.b3Int4, align 16
  %4 = alloca i32, align 4
  %5 = alloca i32, align 4
  store i32 %0, ptr %4, align 4, !tbaa !23
  store i32 %1, ptr %5, align 4, !tbaa !23
  %6 = load i32, ptr %4, align 4, !tbaa !23
  %7 = load i32, ptr %5, align 4, !tbaa !23
  %8 = icmp slt i32 %6, %7
  br i1 %8, label %9, label %16

9:                                                ; preds = %2
  %10 = load i32, ptr %4, align 4, !tbaa !23
  %11 = getelementptr inbounds nuw %struct.b3Int4, ptr %3, i32 0, i32 0
  %12 = getelementptr inbounds nuw %struct.anon, ptr %11, i32 0, i32 0
  store i32 %10, ptr %12, align 16, !tbaa !38
  %13 = load i32, ptr %5, align 4, !tbaa !23
  %14 = getelementptr inbounds nuw %struct.b3Int4, ptr %3, i32 0, i32 0
  %15 = getelementptr inbounds nuw %struct.anon, ptr %14, i32 0, i32 1
  store i32 %13, ptr %15, align 4, !tbaa !38
  br label %23

16:                                               ; preds = %2
  %17 = load i32, ptr %5, align 4, !tbaa !23
  %18 = getelementptr inbounds nuw %struct.b3Int4, ptr %3, i32 0, i32 0
  %19 = getelementptr inbounds nuw %struct.anon, ptr %18, i32 0, i32 0
  store i32 %17, ptr %19, align 16, !tbaa !38
  %20 = load i32, ptr %4, align 4, !tbaa !23
  %21 = getelementptr inbounds nuw %struct.b3Int4, ptr %3, i32 0, i32 0
  %22 = getelementptr inbounds nuw %struct.anon, ptr %21, i32 0, i32 1
  store i32 %20, ptr %22, align 4, !tbaa !38
  br label %23

23:                                               ; preds = %16, %9
  %24 = getelementptr inbounds nuw %struct.b3Int4, ptr %3, i32 0, i32 0
  %25 = getelementptr inbounds nuw %struct.anon, ptr %24, i32 0, i32 2
  store i32 -1, ptr %25, align 8, !tbaa !38
  %26 = getelementptr inbounds nuw %struct.b3Int4, ptr %3, i32 0, i32 0
  %27 = getelementptr inbounds nuw %struct.anon, ptr %26, i32 0, i32 3
  store i32 -1, ptr %27, align 4, !tbaa !38
  %28 = getelementptr inbounds nuw %struct.b3Int4, ptr %3, i32 0, i32 0
  %29 = getelementptr inbounds nuw %union.anon, ptr %28, i32 0, i32 0
  %30 = load { i64, i64 }, ptr %29, align 16
  ret { i64, i64 } %30
}

; Function Attrs: mustprogress uwtable
define dso_local noundef ptr @_ZN28b3SortedOverlappingPairCache21removeOverlappingPairEiiP12b3Dispatcher(ptr noundef nonnull align 8 dereferenceable(56) %0, i32 noundef %1, i32 noundef %2, ptr noundef %3) unnamed_addr #0 align 2 {
  %5 = alloca ptr, align 8
  %6 = alloca ptr, align 8
  %7 = alloca i32, align 4
  %8 = alloca i32, align 4
  %9 = alloca ptr, align 8
  %10 = alloca %struct.b3Int4, align 16
  %11 = alloca i32, align 4
  %12 = alloca ptr, align 8
  %13 = alloca i32, align 4
  store ptr %0, ptr %6, align 8, !tbaa !72
  store i32 %1, ptr %7, align 4, !tbaa !23
  store i32 %2, ptr %8, align 4, !tbaa !23
  store ptr %3, ptr %9, align 8, !tbaa !40
  %14 = load ptr, ptr %6, align 8
  %15 = load ptr, ptr %14, align 8, !tbaa !9
  %16 = getelementptr inbounds ptr, ptr %15, i64 11
  %17 = load ptr, ptr %16, align 8
  %18 = call noundef zeroext i1 %17(ptr noundef nonnull align 8 dereferenceable(56) %14)
  br i1 %18, label %56, label %19

19:                                               ; preds = %4
  call void @llvm.lifetime.start.p0(i64 16, ptr %10) #10
  %20 = load i32, ptr %7, align 4, !tbaa !23
  %21 = load i32, ptr %8, align 4, !tbaa !23
  %22 = call { i64, i64 } @_Z20b3MakeBroadphasePairii(i32 noundef %20, i32 noundef %21)
  %23 = getelementptr inbounds nuw %struct.b3Int4, ptr %10, i32 0, i32 0
  %24 = getelementptr inbounds nuw %union.anon, ptr %23, i32 0, i32 0
  %25 = getelementptr inbounds nuw { i64, i64 }, ptr %24, i32 0, i32 0
  %26 = extractvalue { i64, i64 } %22, 0
  store i64 %26, ptr %25, align 16
  %27 = getelementptr inbounds nuw { i64, i64 }, ptr %24, i32 0, i32 1
  %28 = extractvalue { i64, i64 } %22, 1
  store i64 %28, ptr %27, align 8
  call void @llvm.lifetime.start.p0(i64 4, ptr %11) #10
  %29 = getelementptr inbounds nuw %class.b3SortedOverlappingPairCache, ptr %14, i32 0, i32 1
  %30 = call noundef i32 @_ZNK20b3AlignedObjectArrayI6b3Int4E16findLinearSearchERKS0_(ptr noundef nonnull align 8 dereferenceable(25) %29, ptr noundef nonnull align 16 dereferenceable(16) %10)
  store i32 %30, ptr %11, align 4, !tbaa !23
  %31 = load i32, ptr %11, align 4, !tbaa !23
  %32 = getelementptr inbounds nuw %class.b3SortedOverlappingPairCache, ptr %14, i32 0, i32 1
  %33 = call noundef i32 @_ZNK20b3AlignedObjectArrayI6b3Int4E4sizeEv(ptr noundef nonnull align 8 dereferenceable(25) %32)
  %34 = icmp slt i32 %31, %33
  br i1 %34, label %35, label %52

35:                                               ; preds = %19
  %36 = load i32, ptr @b3g_overlappingPairs, align 4, !tbaa !23
  %37 = add nsw i32 %36, -1
  store i32 %37, ptr @b3g_overlappingPairs, align 4, !tbaa !23
  call void @llvm.lifetime.start.p0(i64 8, ptr %12) #10
  %38 = getelementptr inbounds nuw %class.b3SortedOverlappingPairCache, ptr %14, i32 0, i32 1
  %39 = load i32, ptr %11, align 4, !tbaa !23
  %40 = call noundef nonnull align 16 dereferenceable(16) ptr @_ZN20b3AlignedObjectArrayI6b3Int4EixEi(ptr noundef nonnull align 8 dereferenceable(25) %38, i32 noundef %39)
  store ptr %40, ptr %12, align 8, !tbaa !30
  %41 = load ptr, ptr %12, align 8, !tbaa !30
  %42 = load ptr, ptr %9, align 8, !tbaa !40
  %43 = load ptr, ptr %14, align 8, !tbaa !9
  %44 = getelementptr inbounds ptr, ptr %43, i64 5
  %45 = load ptr, ptr %44, align 8
  call void %45(ptr noundef nonnull align 8 dereferenceable(56) %14, ptr noundef nonnull align 16 dereferenceable(16) %41, ptr noundef %42)
  %46 = getelementptr inbounds nuw %class.b3SortedOverlappingPairCache, ptr %14, i32 0, i32 1
  %47 = load i32, ptr %11, align 4, !tbaa !23
  %48 = getelementptr inbounds nuw %class.b3SortedOverlappingPairCache, ptr %14, i32 0, i32 1
  %49 = call noundef i32 @_ZNK20b3AlignedObjectArrayI6b3Int4E8capacityEv(ptr noundef nonnull align 8 dereferenceable(25) %48)
  %50 = sub nsw i32 %49, 1
  call void @_ZN20b3AlignedObjectArrayI6b3Int4E4swapEii(ptr noundef nonnull align 8 dereferenceable(25) %46, i32 noundef %47, i32 noundef %50)
  %51 = getelementptr inbounds nuw %class.b3SortedOverlappingPairCache, ptr %14, i32 0, i32 1
  call void @_ZN20b3AlignedObjectArrayI6b3Int4E8pop_backEv(ptr noundef nonnull align 8 dereferenceable(25) %51)
  store ptr null, ptr %5, align 8
  store i32 1, ptr %13, align 4
  call void @llvm.lifetime.end.p0(i64 8, ptr %12) #10
  br label %53

52:                                               ; preds = %19
  store i32 0, ptr %13, align 4
  br label %53

53:                                               ; preds = %52, %35
  call void @llvm.lifetime.end.p0(i64 4, ptr %11) #10
  call void @llvm.lifetime.end.p0(i64 16, ptr %10) #10
  %54 = load i32, ptr %13, align 4
  switch i32 %54, label %59 [
    i32 0, label %55
    i32 1, label %57
  ]

55:                                               ; preds = %53
  br label %56

56:                                               ; preds = %55, %4
  store ptr null, ptr %5, align 8
  br label %57

57:                                               ; preds = %56, %53
  %58 = load ptr, ptr %5, align 8
  ret ptr %58

59:                                               ; preds = %53
  unreachable
}