; Function Attrs: mustprogress uwtable
define dso_local noundef ptr @_ZN28b3SortedOverlappingPairCache21removeOverlappingPairEiiP12b3Dispatcher(ptr noundef nonnull align 8 dereferenceable(56) %0, i32 noundef %1, i32 noundef %2, ptr noundef %3) unnamed_addr #0 align 2 {
  %.sroa.0.i = alloca %struct.anon, align 16
  %5 = load ptr, ptr %0, align 8, !tbaa !4
  %6 = getelementptr inbounds nuw i8, ptr %5, i64 88
  %7 = load ptr, ptr %6, align 8
  %8 = tail call noundef zeroext i1 %7(ptr noundef nonnull align 8 dereferenceable(56) %0)
  br i1 %8, label %_ZNK20b3AlignedObjectArrayI6b3Int4E16findLinearSearchERKS0_.exit.thread, label %9

9:                                                ; preds = %4
  %.8.i = tail call i32 @llvm.smax.i32(i32 %1, i32 %2)
  %10 = getelementptr inbounds nuw i8, ptr %0, i64 12
  %11 = load i32, ptr %10, align 4, !tbaa !16
  %12 = icmp sgt i32 %11, 0
  br i1 %12, label %.lr.ph.i, label %_ZNK20b3AlignedObjectArrayI6b3Int4E16findLinearSearchERKS0_.exit.thread

.lr.ph.i:                                         ; preds = %9
  %..i = tail call i32 @llvm.smin.i32(i32 %1, i32 %2)
  %13 = getelementptr inbounds nuw i8, ptr %0, i64 24
  %14 = load ptr, ptr %13, align 8, !tbaa !15
  %wide.trip.count.i = zext nneg i32 %11 to i64
  br label %15

15:                                               ; preds = %23, %.lr.ph.i
  %indvars.iv.i = phi i64 [ 0, %.lr.ph.i ], [ %indvars.iv.next.i, %23 ]
  %16 = getelementptr inbounds nuw %struct.b3Int4, ptr %14, i64 %indvars.iv.i
  %17 = load i32, ptr %16, align 16, !tbaa !30
  %18 = icmp eq i32 %17, %..i
  %19 = getelementptr inbounds nuw i8, ptr %16, i64 4
  %20 = load i32, ptr %19, align 4
  %21 = icmp eq i32 %20, %.8.i
  %22 = select i1 %18, i1 %21, i1 false
  br i1 %22, label %_ZNK20b3AlignedObjectArrayI6b3Int4E16findLinearSearchERKS0_.exit, label %23

23:                                               ; preds = %15
  %indvars.iv.next.i = add nuw nsw i64 %indvars.iv.i, 1
  %exitcond.not.i = icmp eq i64 %indvars.iv.next.i, %wide.trip.count.i
  br i1 %exitcond.not.i, label %_ZNK20b3AlignedObjectArrayI6b3Int4E16findLinearSearchERKS0_.exit.thread, label %15, !llvm.loop !56

_ZNK20b3AlignedObjectArrayI6b3Int4E16findLinearSearchERKS0_.exit: ; preds = %15
  %24 = trunc nuw nsw i64 %indvars.iv.i to i32
  %25 = icmp sgt i32 %11, %24
  br i1 %25, label %26, label %_ZNK20b3AlignedObjectArrayI6b3Int4E16findLinearSearchERKS0_.exit.thread

26:                                               ; preds = %_ZNK20b3AlignedObjectArrayI6b3Int4E16findLinearSearchERKS0_.exit
  %27 = load i32, ptr @b3g_overlappingPairs, align 4, !tbaa !35
  %28 = add nsw i32 %27, -1
  store i32 %28, ptr @b3g_overlappingPairs, align 4, !tbaa !35
  %sext = shl i64 %indvars.iv.i, 32
  %29 = ashr exact i64 %sext, 32
  %30 = getelementptr inbounds %struct.b3Int4, ptr %14, i64 %29
  %31 = load ptr, ptr %0, align 8, !tbaa !4
  %32 = getelementptr inbounds nuw i8, ptr %31, i64 40
  %33 = load ptr, ptr %32, align 8
  tail call void %33(ptr noundef nonnull align 8 dereferenceable(56) %0, ptr noundef nonnull align 16 dereferenceable(16) %30, ptr noundef %3)
  %34 = getelementptr inbounds nuw i8, ptr %0, i64 16
  %35 = load i32, ptr %34, align 8, !tbaa !17
  %36 = add nsw i32 %35, -1
  call void @llvm.lifetime.start.p0(i64 16, ptr nonnull %.sroa.0.i)
  %37 = load ptr, ptr %13, align 8, !tbaa !15
  %38 = getelementptr inbounds %struct.b3Int4, ptr %37, i64 %29
  call void @llvm.memcpy.p0.p0.i64(ptr noundef nonnull align 16 dereferenceable(16) %.sroa.0.i, ptr noundef nonnull align 16 dereferenceable(16) %38, i64 16, i1 false), !tbaa.struct !29
  %39 = sext i32 %36 to i64
  %40 = getelementptr inbounds %struct.b3Int4, ptr %37, i64 %39
  tail call void @llvm.memcpy.p0.p0.i64(ptr noundef nonnull align 16 dereferenceable(16) %38, ptr noundef nonnull align 16 dereferenceable(16) %40, i64 16, i1 false), !tbaa.struct !29
  %41 = load ptr, ptr %13, align 8, !tbaa !15
  %42 = getelementptr inbounds %struct.b3Int4, ptr %41, i64 %39
  call void @llvm.memcpy.p0.p0.i64(ptr noundef nonnull align 16 dereferenceable(16) %42, ptr noundef nonnull align 16 dereferenceable(16) %.sroa.0.i, i64 16, i1 false), !tbaa.struct !29
  call void @llvm.lifetime.end.p0(i64 16, ptr nonnull %.sroa.0.i)
  %43 = load i32, ptr %10, align 4, !tbaa !16
  %44 = add nsw i32 %43, -1
  store i32 %44, ptr %10, align 4, !tbaa !16
  br label %_ZNK20b3AlignedObjectArrayI6b3Int4E16findLinearSearchERKS0_.exit.thread

_ZNK20b3AlignedObjectArrayI6b3Int4E16findLinearSearchERKS0_.exit.thread: ; preds = %23, %9, %26, %_ZNK20b3AlignedObjectArrayI6b3Int4E16findLinearSearchERKS0_.exit, %4
  ret ptr null
}